target datalayout = "e-m:e-p270:32:32-p271:32:32-p272:64:64-i64:64-i128:128-f80:128-n8:16:32:64-S128"
target triple = "x86_64-pc-linux-gnu"

%struct.bn_mont_ctx_st = type { i32, %struct.bignum_st, %struct.bignum_st, %struct.bignum_st, [2 x i64], i32 }
%struct.bignum_st = type { ptr, i32, i32, i32, i32 }

; Function Attrs: nounwind uwtable
define void @BN_MONT_CTX_init(ptr noundef %0) #0 {
  %2 = alloca ptr, align 8
  store ptr %0, ptr %2, align 8, !tbaa !8
  %3 = load ptr, ptr %2, align 8, !tbaa !8
  %4 = getelementptr inbounds nuw %struct.bn_mont_ctx_st, ptr %3, i32 0, i32 0
  store i32 0, ptr %4, align 8, !tbaa !31
  %5 = load ptr, ptr %2, align 8, !tbaa !8
  %6 = getelementptr inbounds nuw %struct.bn_mont_ctx_st, ptr %5, i32 0, i32 1
  call void @bn_init(ptr noundef %6)
  %7 = load ptr, ptr %2, align 8, !tbaa !8
  %8 = getelementptr inbounds nuw %struct.bn_mont_ctx_st, ptr %7, i32 0, i32 2
  call void @bn_init(ptr noundef %8)
  %9 = load ptr, ptr %2, align 8, !tbaa !8
  %10 = getelementptr inbounds nuw %struct.bn_mont_ctx_st, ptr %9, i32 0, i32 3
  call void @bn_init(ptr noundef %10)
  %11 = load ptr, ptr %2, align 8, !tbaa !8
  %12 = getelementptr inbounds nuw %struct.bn_mont_ctx_st, ptr %11, i32 0, i32 4
  %13 = getelementptr inbounds [2 x i64], ptr %12, i64 0, i64 1
  store i64 0, ptr %13, align 8, !tbaa !24
  %14 = load ptr, ptr %2, align 8, !tbaa !8
  %15 = getelementptr inbounds nuw %struct.bn_mont_ctx_st, ptr %14, i32 0, i32 4
  %16 = getelementptr inbounds [2 x i64], ptr %15, i64 0, i64 0
  store i64 0, ptr %16, align 8, !tbaa !24
  %17 = load ptr, ptr %2, align 8, !tbaa !8
  %18 = getelementptr inbounds nuw %struct.bn_mont_ctx_st, ptr %17, i32 0, i32 5
  store i32 0, ptr %18, align 8, !tbaa !30
  ret void
}