; Function Attrs: nounwind uwtable
define void @BN_MONT_CTX_init(ptr noundef initializes((0, 4)) %0) local_unnamed_addr #0 {
  store i32 0, ptr %0, align 8, !tbaa !21
  %2 = getelementptr inbounds nuw i8, ptr %0, i64 8
  tail call void @bn_init(ptr noundef nonnull %2) #5
  %3 = getelementptr inbounds nuw i8, ptr %0, i64 32
  tail call void @bn_init(ptr noundef nonnull %3) #5
  %4 = getelementptr inbounds nuw i8, ptr %0, i64 56
  tail call void @bn_init(ptr noundef nonnull %4) #5
  %5 = getelementptr inbounds nuw i8, ptr %0, i64 80
  tail call void @llvm.memset.p0.i64(ptr noundef nonnull align 8 dereferenceable(20) %5, i8 0, i64 20, i1 false)
  ret void
}